Certificate:
    Data:
        Version: 3 (0x2)
        Serial Number: 3 (0x3)
    Signature Algorithm: sha256WithRSAEncryption
        Issuer: C=BR, ST=Santa Catarina, L=Florianopolis, O=Trapp, OU=Development, CN=Device Server CA
        Validity
            Not Before: Mar  3 20:28:47 2016 GMT
            Not After : Mar  3 20:28:47 2017 GMT
        Subject: C=BR, ST=Santa Catarina, L=Florianopolis, O=Trapp, OU=Development, CN=JS App
        Subject Public Key Info:
            Public Key Algorithm: rsaEncryption
                Public-Key: (2048 bit)
                Modulus:
                    00:c2:a7:d1:b1:12:11:3d:60:4e:6b:87:13:a2:4f:
                    ab:98:10:fa:49:28:82:7b:48:f9:fa:a9:2d:4a:9f:
                    63:86:0b:0d:86:0d:99:5c:d4:94:cf:c5:64:21:fd:
                    0d:4b:13:3b:08:26:88:74:e4:7f:3c:c0:f2:87:a1:
                    c6:e5:8e:7f:d6:5e:a7:b1:95:82:10:fd:05:f8:76:
                    80:8a:16:0d:9e:3e:ec:6d:cd:d4:3e:c1:05:35:a2:
                    3d:5b:d2:69:14:0c:4c:c4:bb:5a:8a:b9:ff:77:11:
                    ab:85:af:be:89:c8:72:12:7f:a1:c6:13:fa:f2:b4:
                    05:5d:62:e8:d3:f8:7f:1a:fc:3a:8e:d3:ff:a4:1e:
                    f4:91:a9:40:08:76:9c:35:bb:60:af:71:de:51:96:
                    2e:6d:22:ee:02:96:e7:0b:9f:67:35:59:5e:34:2c:
                    dc:a6:9e:c4:9b:27:57:38:51:b1:86:79:df:48:0f:
                    97:84:3f:38:52:ea:b7:ff:20:b6:92:94:a9:db:d0:
                    3d:a8:d9:f8:41:0f:1e:d7:1f:01:0c:fe:f6:57:fb:
                    ec:17:bd:6d:39:56:79:2d:8c:33:d2:c8:83:00:c7:
                    97:ec:71:9b:46:67:b1:94:c4:fa:4d:ca:99:6e:0f:
                    8c:b8:c1:13:46:9f:69:b1:f2:65:2b:eb:9c:fe:cf:
                    e3:87
                Exponent: 65537 (0x10001)
        X509v3 extensions:
            X509v3 Basic Constraints: 
                CA:FALSE
            X509v3 Subject Key Identifier: 
                1A:F0:E6:7D:22:C8:60:A7:F2:BD:86:E5:12:DD:55:D0:50:AB:04:49
            X509v3 Authority Key Identifier: 
                keyid:A9:EE:70:08:1A:99:FE:EE:13:C1:A5:F4:4D:73:1F:4E:D2:B9:C2:15

            X509v3 CRL Distribution Points: 

                Full Name:
                  URI:http://www.inf.ufsc.br/~marlon.trapp/ca-crl.pem

    Signature Algorithm: sha256WithRSAEncryption
         2b:4d:60:a7:be:8c:ae:8f:cc:4e:70:48:b1:ad:13:43:92:56:
         a9:fb:bf:8e:70:54:db:05:99:4a:4f:a9:98:b3:4c:71:e4:c2:
         08:b1:f9:19:c9:e0:8b:a2:4c:62:a1:85:d5:ca:f0:5e:c0:ae:
         9d:3f:e7:06:eb:f9:22:0e:aa:9c:b0:12:19:e5:b3:5e:ce:61:
         ce:1c:50:0c:93:2c:d8:b5:23:45:08:8f:8a:d5:54:d9:1c:c8:
         b1:f9:70:71:43:dd:a2:e0:a2:4e:59:6f:0a:da:58:4f:71:7e:
         82:03:d5:3e:7d:69:ca:2f:1d:e7:f4:37:0b:94:35:01:a3:76:
         50:8f:6b:f6:9b:5d:20:0d:4b:6b:47:2c:30:8f:50:9a:81:a6:
         df:cd:fb:f9:f7:bf:4a:7e:af:93:cd:3b:32:3c:e4:91:24:58:
         1e:e2:43:c4:28:e5:37:ab:ce:52:c0:ac:28:b3:dc:83:bd:4b:
         24:df:de:38:e7:3b:0c:b1:d2:f4:b0:2a:1a:a8:f0:ad:0e:11:
         f1:50:03:d9:f0:2a:84:86:ff:5e:8a:59:3a:ce:87:fd:c8:bf:
         62:bb:b4:5e:b8:e7:a5:65:e2:54:40:f8:db:6f:82:ee:1b:7b:
         d1:14:5f:c1:cd:32:15:18:58:6d:cf:64:63:68:fb:b6:9f:ab:
         8b:49:b9:03:e3:35:5e:74:96:58:fe:3e:f6:01:fc:61:8f:71:
         c9:b9:89:24:87:1e:af:b2:27:c7:bc:80:59:6d:90:b2:4a:ff:
         b0:69:52:ce:1f:f5:b7:56:40:b9:a7:3c:e7:57:29:01:49:ed:
         ec:cc:37:47:8c:e3:8a:ab:52:bd:a4:54:5d:2a:49:be:3b:36:
         0d:dc:a7:67:f9:d8:c6:8b:b8:e5:d5:89:6f:03:30:b2:be:09:
         7b:a1:53:03:d2:23:8c:9d:03:72:53:40:78:0f:ae:43:a6:dd:
         03:28:26:02:b7:33:af:3f:0c:6a:d9:3f:81:5b:15:e4:e4:8b:
         02:c2:b9:03:ac:ab:c5:3c:b8:d5:fc:0e:e2:37:d8:ca:ae:52:
         22:71:30:2d:6f:78:64:3f:db:13:65:5b:a1:c8:d4:2d:f5:2f:
         5a:0e:55:be:52:d2:43:b4:04:6f:3b:43:77:4a:1f:c1:20:4f:
         c2:0f:b2:c8:94:34:14:e8:4f:04:bb:65:0b:01:2d:8a:53:05:
         a8:4f:bf:03:42:63:03:a4:d7:98:49:4d:a8:13:d6:0c:7d:b9:
         e6:19:89:3e:3d:08:96:f8:1d:fb:b6:66:f9:4f:5c:67:8a:2f:
         ac:30:8d:7a:4b:50:b9:78:dc:53:a2:91:1a:97:b0:73:f3:91:
         fc:2c:c2:48:7e:db:fa:42:1f:18:13:2b:ef:4f:e9:d9:53:2f:
         2f:a2:4a:d5:20:24:15:57:39:e1:63:65:44:54:21:6c:ea:24:
         83:54:e1:ef:0c:a2:73:30:7a:d4:67:60:eb:33:d4:b4:ab:48:
         89:51:31:20:92:ea:5a:f5:4e:e3:e9:3c:c3:12:8d:d5:5a:bc:
         cc:8e:b3:6c:38:df:ff:77:7a:3c:82:de:f1:e6:ac:87:55:2a:
         b3:02:22:3e:f6:e0:cc:a1:83:55:e7:1b:cf:ad:50:6c:aa:59:
         bc:53:00:e7:f9:af:6e:1d:42:e9:08:07:a9:2e:af:55:30:d2:
         44:54:0d:fe:49:be:dd:7c:31:8c:36:f9:7b:16:7d:ce:51:d7:
         c4:cc:a2:da:3e:8f:f7:05:bc:9d:5f:98:f0:e7:4d:19:a1:d6:
         cd:d2:c9:ce:0d:85:6f:c0:f5:65:25:62:7a:ab:0f:15:31:cc:
         0b:85:c1:ea:3e:46:b2:24:7b:43:61:8a:9d:e4:02:8d:fc:eb:
         e9:91:c7:06:6f:ad:a6:77:c4:9a:fd:8e:f6:46:48:ab:9f:4b:
         0a:29:c1:8d:c4:79:e3:66:45:2f:83:fa:1a:44:be:7a:93:e7:
         cf:bf:78:54:ab:b3:40:3f:b5:f2:90:21:56:d0:09:cb:00:ed:
         b5:df:64:28:59:72:1b:7b:2d:37:c5:f3:b0:77:73:f9:16:0b:
         35:37:7f:3b:9a:e8:ae:ea:35:ee:45:f1:13:52:9a:11:b4:96:
         43:99:00:93:0f:64:a1:38:23:4a:be:32:2d:49:6a:40:74:37:
         4d:2f:e8:37:8d:3f:88:71:1d:4a:5c:12:f3:2a:0b:60:ef:54:
         e4:f2:0a:0f:2b:c8:fa:dc:06:4c:85:85:b1:fd:e1:8f:36:58:
         9a:c5:f5:dd:2d:da:10:e6:0c:fb:8f:63:8e:f4:00:83:05:21:
         3a:dc:ad:b8:6d:5c:1b:29:fe:88:32:36:56:43:ee:70:ff:95:
         69:40:10:d3:1e:30:36:32:49:b5:69:23:79:80:89:86:5e:e1:
         de:52:4e:a0:b4:ac:2a:5c:91:4a:57:4e:e6:67:ec:c7:d0:34:
         ee:1b:58:ed:d6:44:a3:50:7a:5d:a5:51:6c:62:d6:14:b2:c9:
         aa:5a:cb:ba:be:1f:80:51:63:90:94:b5:ba:5a:7c:6f:81:94:
         f9:47:aa:6b:a4:9c:4a:f0:5d:c7:37:5e:37:e5:6b:b8:e5:f7:
         32:a9:68:73:57:a3:5f:53:aa:02:3a:f2:fe:19:a0:ad:50:48:
         dd:a3:28:cf:b6:f0:09:5a:9d:e8:03:1a:1a:97:23:1f:48:0e:
         7e:64:df:29:e3:df:68:33:45:f9:09:5d:1e:5f:7c:16
-----BEGIN CERTIFICATE-----
MIIHADCCAuigAwIBAgIBAzANBgkqhkiG9w0BAQsFADB/MQswCQYDVQQGEwJCUjEX
MBUGA1UECAwOU2FudGEgQ2F0YXJpbmExFjAUBgNVBAcMDUZsb3JpYW5vcG9saXMx
DjAMBgNVBAoMBVRyYXBwMRQwEgYDVQQLDAtEZXZlbG9wbWVudDEZMBcGA1UEAwwQ
RGV2aWNlIFNlcnZlciBDQTAeFw0xNjAzMDMyMDI4NDdaFw0xNzAzMDMyMDI4NDda
MHUxCzAJBgNVBAYTAkJSMRcwFQYDVQQIDA5TYW50YSBDYXRhcmluYTEWMBQGA1UE
BwwNRmxvcmlhbm9wb2xpczEOMAwGA1UECgwFVHJhcHAxFDASBgNVBAsMC0RldmVs
b3BtZW50MQ8wDQYDVQQDDAZKUyBBcHAwggEiMA0GCSqGSIb3DQEBAQUAA4IBDwAw
ggEKAoIBAQDCp9GxEhE9YE5rhxOiT6uYEPpJKIJ7SPn6qS1Kn2OGCw2GDZlc1JTP
xWQh/Q1LEzsIJoh05H88wPKHocbljn/WXqexlYIQ/QX4doCKFg2ePuxtzdQ+wQU1
oj1b0mkUDEzEu1qKuf93EauFr76JyHISf6HGE/rytAVdYujT+H8a/DqO0/+kHvSR
qUAIdpw1u2Cvcd5Rli5tIu4ClucLn2c1WV40LNymnsSbJ1c4UbGGed9ID5eEPzhS
6rf/ILaSlKnb0D2o2fhBDx7XHwEM/vZX++wXvW05VnktjDPSyIMAx5fscZtGZ7GU
xPpNypluD4y4wRNGn2mx8mUr65z+z+OHAgMBAAGjgZAwgY0wCQYDVR0TBAIwADAd
BgNVHQ4EFgQUGvDmfSLIYKfyvYblEt1V0FCrBEkwHwYDVR0jBBgwFoAUqe5wCBqZ
/u4TwaX0TXMfTtK5whUwQAYDVR0fBDkwNzA1oDOgMYYvaHR0cDovL3d3dy5pbmYu
dWZzYy5ici9+bWFybG9uLnRyYXBwL2NhLWNybC5wZW0wDQYJKoZIhvcNAQELBQAD
ggQBACtNYKe+jK6PzE5wSLGtE0OSVqn7v45wVNsFmUpPqZizTHHkwgix+RnJ4Iui
TGKhhdXK8F7Arp0/5wbr+SIOqpywEhnls17OYc4cUAyTLNi1I0UIj4rVVNkcyLH5
cHFD3aLgok5ZbwraWE9xfoID1T59acovHef0NwuUNQGjdlCPa/abXSANS2tHLDCP
UJqBpt/N+/n3v0p+r5PNOzI85JEkWB7iQ8Qo5TerzlLArCiz3IO9SyTf3jjnOwyx
0vSwKhqo8K0OEfFQA9nwKoSG/16KWTrOh/3Iv2K7tF6456Vl4lRA+Ntvgu4be9EU
X8HNMhUYWG3PZGNo+7afq4tJuQPjNV50llj+PvYB/GGPccm5iSSHHq+yJ8e8gFlt
kLJK/7BpUs4f9bdWQLmnPOdXKQFJ7ezMN0eM44qrUr2kVF0qSb47Ng3cp2f52MaL
uOXViW8DMLK+CXuhUwPSI4ydA3JTQHgPrkOm3QMoJgK3M68/DGrZP4FbFeTkiwLC
uQOsq8U8uNX8DuI32MquUiJxMC1veGQ/2xNlW6HI1C31L1oOVb5S0kO0BG87Q3dK
H8EgT8IPssiUNBToTwS7ZQsBLYpTBahPvwNCYwOk15hJTagT1gx9ueYZiT49CJb4
Hfu2ZvlPXGeKL6wwjXpLULl43FOikRqXsHPzkfwswkh+2/pCHxgTK+9P6dlTLy+i
StUgJBVXOeFjZURUIWzqJINU4e8MonMwetRnYOsz1LSrSIlRMSCS6lr1TuPpPMMS
jdVavMyOs2w43/93ejyC3vHmrIdVKrMCIj724Myhg1XnG8+tUGyqWbxTAOf5r24d
QukIB6kur1Uw0kRUDf5Jvt18MYw2+XsWfc5R18TMoto+j/cFvJ1fmPDnTRmh1s3S
yc4NhW/A9WUlYnqrDxUxzAuFweo+RrIke0Nhip3kAo386+mRxwZvraZ3xJr9jvZG
SKufSwopwY3EeeNmRS+D+hpEvnqT58+/eFSrs0A/tfKQIVbQCcsA7bXfZChZcht7
LTfF87B3c/kWCzU3fzua6K7qNe5F8RNSmhG0lkOZAJMPZKE4I0q+Mi1JakB0N00v
6DeNP4hxHUpcEvMqC2DvVOTyCg8ryPrcBkyFhbH94Y82WJrF9d0t2hDmDPuPY470
AIMFITrcrbhtXBsp/ogyNlZD7nD/lWlAENMeMDYySbVpI3mAiYZe4d5STqC0rCpc
kUpXTuZn7MfQNO4bWO3WRKNQel2lUWxi1hSyyapay7q+H4BRY5CUtbpafG+BlPlH
qmuknErwXcc3Xjfla7jl9zKpaHNXo19TqgI68v4ZoK1QSN2jKM+28AlanegDGhqX
Ix9IDn5k3ynj32gzRfkJXR5ffBY=
-----END CERTIFICATE-----
