Certificate:
    Data:
        Version: 3 (0x2)
        Serial Number: 1 (0x1)
    Signature Algorithm: sha256WithRSAEncryption
        Issuer: C=BR, ST=Santa Catarina, L=Florianopolis, O=Trapp, OU=Development, CN=Device Server CA
        Validity
            Not Before: Mar  1 22:26:55 2016 GMT
            Not After : Mar  1 22:26:55 2017 GMT
        Subject: C=BR, ST=Santa Catarina, L=Florianopolis, O=Trapp, OU=Development, CN=Module Developer
        Subject Public Key Info:
            Public Key Algorithm: rsaEncryption
                Public-Key: (2048 bit)
                Modulus:
                    00:c5:54:f7:1e:47:82:26:69:9b:f9:67:78:9e:31:
                    bb:88:74:d8:d0:85:fc:03:fb:13:ab:87:2b:13:71:
                    34:f7:7e:93:9d:7b:31:8b:4e:cb:da:73:ec:35:9a:
                    b1:fa:b1:7c:2b:96:c7:33:81:bc:4a:c4:06:17:89:
                    b3:22:1d:54:f0:ac:ec:ee:a0:67:88:32:53:5c:8e:
                    ac:d2:fb:1a:10:5d:78:b2:0d:a4:23:f4:46:ed:10:
                    bd:c0:f8:cc:7d:ee:32:ba:96:d4:4f:aa:bb:f5:83:
                    59:ed:16:52:25:4d:cb:35:70:db:eb:c3:f8:13:f2:
                    38:a1:1e:68:e8:0b:66:30:24:b3:4e:11:e4:9e:7f:
                    a2:a3:63:ec:5e:7b:5a:95:af:f7:f6:b4:33:5f:28:
                    22:6d:b0:56:ac:5d:57:b0:7d:b4:e4:c3:f1:85:a4:
                    74:7d:43:fd:72:ad:34:9c:aa:d3:f0:ca:be:b5:b6:
                    8c:d7:de:48:e7:81:cf:02:7b:4c:c2:a3:95:8c:7e:
                    70:41:88:80:a3:b1:d2:30:99:de:3c:04:4e:f7:b4:
                    2d:77:fb:93:5a:84:48:97:07:7c:e1:6f:c3:0f:68:
                    7c:e4:5f:05:10:7f:0a:75:90:0f:54:bb:22:a9:66:
                    32:af:2d:71:3a:98:e6:9f:01:cf:d2:fe:09:d7:7f:
                    f6:b3
                Exponent: 65537 (0x10001)
        X509v3 extensions:
            X509v3 Basic Constraints: 
                CA:FALSE
            X509v3 Subject Key Identifier: 
                34:C5:9C:A1:FB:81:46:AE:06:F2:0E:20:59:E2:28:F8:EC:9A:85:B5
            X509v3 Authority Key Identifier: 
                keyid:A9:EE:70:08:1A:99:FE:EE:13:C1:A5:F4:4D:73:1F:4E:D2:B9:C2:15

            X509v3 CRL Distribution Points: 

                Full Name:
                  URI:http://www.inf.ufsc.br/~marlon.trapp/ca-crl.pem

    Signature Algorithm: sha256WithRSAEncryption
         b1:2f:05:91:80:bc:b4:7a:a4:43:db:61:70:69:d4:e6:7c:e5:
         9f:f1:15:06:1e:15:c2:a2:a0:eb:9d:ba:39:32:66:26:8f:07:
         bd:d4:bc:e7:4e:63:84:15:9c:39:dd:d4:0f:f5:ba:02:55:f9:
         9f:fd:60:bb:90:20:5d:d9:e2:00:16:ce:c7:e7:a9:5d:d0:22:
         bf:6c:7c:df:82:24:e5:03:4d:c3:d9:2d:5b:4c:48:db:9a:ac:
         c5:4a:74:d5:48:57:97:01:76:b0:ac:fc:1b:9d:bd:f5:cf:04:
         92:8b:cb:b0:1e:e7:06:a5:fc:39:c4:c3:88:9c:13:e8:cf:a0:
         54:ce:72:68:8c:98:85:2f:05:66:d2:94:2b:5d:72:14:6b:d7:
         c3:f6:29:12:0e:9a:97:e2:fd:cc:15:ff:6f:0f:36:ad:51:46:
         f7:53:35:bd:69:54:9b:d9:d9:6d:e7:69:14:cc:03:e7:3c:51:
         92:bd:60:c9:90:c8:db:70:41:ef:85:f7:47:33:48:17:08:6d:
         65:89:5d:6a:35:97:56:2a:93:42:d0:20:e9:64:df:ff:8d:28:
         13:aa:e0:f6:8a:b0:c8:3d:86:2b:9b:47:dd:4c:32:17:8a:e0:
         44:5d:ec:a8:c7:8f:60:09:3f:aa:89:3c:e3:69:a5:2d:4e:09:
         a1:24:fc:a4:00:9f:ab:a2:48:cc:79:75:0f:c4:42:c2:30:3f:
         26:9f:13:ab:99:6c:83:72:79:b7:8e:a2:d8:dd:52:ce:54:4f:
         30:35:4a:99:7f:dc:7d:42:e4:e4:d1:9a:86:45:97:a1:69:02:
         d7:0e:18:f1:32:ca:1e:f1:36:b1:a5:37:3b:8e:70:66:49:ca:
         a2:5a:8c:56:b1:72:f0:55:9e:00:96:13:cb:6d:5c:84:a9:44:
         84:d9:94:3b:74:16:88:38:20:37:a4:11:34:4a:e7:97:6c:e0:
         d7:81:19:4c:6c:ff:85:7e:65:77:f3:a6:7a:93:8d:d9:90:de:
         1a:0d:5d:c1:da:0f:20:1e:10:fd:d2:ea:b5:d9:1d:2d:b6:e6:
         33:17:6c:5d:82:9b:2c:37:e9:7a:09:85:56:8d:c2:dc:ee:ee:
         2d:da:c2:50:12:8e:b7:a5:4b:f6:b5:26:28:39:9b:21:c1:82:
         5a:fd:c5:e0:72:b6:6f:e0:3c:aa:f9:5f:d9:d2:72:17:cb:b2:
         bd:3f:47:ea:8f:1a:6f:61:c0:51:8c:ec:87:6b:c1:ce:ae:da:
         3f:0b:b2:6b:91:82:5d:17:5f:7d:c0:af:36:c5:69:9c:fd:14:
         be:51:19:2e:6b:d4:7b:ab:bc:a3:57:da:a9:ac:ec:4d:7f:ea:
         1f:b4:3c:41:3c:b1:68:fd:e9:4b:e9:c6:02:99:49:c5:be:83:
         bf:f0:b6:5a:38:23:85:6f:f0:3c:bb:e1:4d:24:46:c8:88:35:
         98:0c:50:0b:ef:83:6f:e2:5d:41:84:1f:5a:3b:d3:bf:7f:59:
         89:e8:42:91:17:5b:28:c8:ef:8e:73:f9:77:84:60:65:92:3e:
         c4:2d:68:b7:b9:a8:ac:fa:4f:41:f6:13:cc:c1:41:49:2b:3e:
         b0:6a:21:51:85:46:dc:ad:e8:4b:8e:69:cc:9b:63:fb:17:e5:
         a5:bb:6c:30:ca:b1:4a:b8:5f:ac:32:79:1e:3f:b8:a0:57:2f:
         c4:78:af:46:95:67:c7:1d:33:31:15:c9:71:d8:d3:e7:64:a8:
         ab:9d:3d:9b:c7:f0:8f:a0:62:66:61:7a:78:b1:61:22:4d:fe:
         98:c8:43:53:a8:93:17:63:1a:0c:5d:3e:77:67:05:ea:ca:0b:
         1c:39:3a:2e:82:d8:2a:14:21:3f:b7:dd:d9:da:78:6b:24:37:
         52:68:14:64:6a:7f:0f:cf:4d:72:1a:d9:fd:57:2a:13:60:ce:
         1b:24:2f:a7:3e:aa:eb:fd:d7:b8:d6:49:22:13:7e:da:84:a7:
         fc:eb:c9:47:40:6e:cb:b0:98:2d:9f:80:82:45:81:d2:2a:f3:
         ca:a8:78:7a:f5:cc:f6:8a:04:45:53:da:99:ef:b1:a1:14:12:
         24:d3:c8:87:9c:14:f0:96:8c:47:54:1a:73:55:3d:43:cf:74:
         e9:30:e8:9a:cf:d5:b3:91:8a:b4:74:1d:b8:47:43:6b:70:9e:
         64:d2:03:ab:a6:d0:67:ce:24:b8:bf:91:73:20:bd:8e:87:f8:
         a7:2f:b2:c7:de:71:84:5f:9f:c4:88:6d:76:92:0b:f6:7c:2f:
         ec:f4:7e:34:a4:4a:e8:b7:0e:83:66:32:75:fe:59:27:ee:a0:
         8b:6d:18:47:81:61:05:8a:b6:6b:d3:04:59:06:e9:23:62:6a:
         9a:77:e1:f7:47:c7:f4:fd:aa:1d:57:5b:c0:1b:c0:27:2e:d5:
         e6:c8:b2:79:b2:fb:e3:fd:b3:05:8d:00:83:9e:c7:16:ae:82:
         e8:b1:e8:17:1f:4d:c3:39:ac:36:3c:21:4a:1a:f9:be:78:44:
         1e:09:e9:3c:3d:f4:57:96:ce:97:1d:9f:11:70:f8:65:d1:89:
         1b:4c:1a:53:2e:ed:c4:61:c8:11:0d:72:db:5d:18:41:60:7f:
         b7:91:82:89:06:13:0a:c8:61:9f:57:c5:50:4a:fe:00:11:5d:
         f6:93:25:8c:a2:c1:9e:dc:3f:5d:73:b6:17:88:36:0d:1b:68:
         fe:3a:50:20:4c:d3:9e:9f:83:36:34:28:37:1e:6a:d7
-----BEGIN CERTIFICATE-----
MIIHCjCCAvKgAwIBAgIBATANBgkqhkiG9w0BAQsFADB/MQswCQYDVQQGEwJCUjEX
MBUGA1UECAwOU2FudGEgQ2F0YXJpbmExFjAUBgNVBAcMDUZsb3JpYW5vcG9saXMx
DjAMBgNVBAoMBVRyYXBwMRQwEgYDVQQLDAtEZXZlbG9wbWVudDEZMBcGA1UEAwwQ
RGV2aWNlIFNlcnZlciBDQTAeFw0xNjAzMDEyMjI2NTVaFw0xNzAzMDEyMjI2NTVa
MH8xCzAJBgNVBAYTAkJSMRcwFQYDVQQIDA5TYW50YSBDYXRhcmluYTEWMBQGA1UE
BwwNRmxvcmlhbm9wb2xpczEOMAwGA1UECgwFVHJhcHAxFDASBgNVBAsMC0RldmVs
b3BtZW50MRkwFwYDVQQDDBBNb2R1bGUgRGV2ZWxvcGVyMIIBIjANBgkqhkiG9w0B
AQEFAAOCAQ8AMIIBCgKCAQEAxVT3HkeCJmmb+Wd4njG7iHTY0IX8A/sTq4crE3E0
936TnXsxi07L2nPsNZqx+rF8K5bHM4G8SsQGF4mzIh1U8Kzs7qBniDJTXI6s0vsa
EF14sg2kI/RG7RC9wPjMfe4yupbUT6q79YNZ7RZSJU3LNXDb68P4E/I4oR5o6Atm
MCSzThHknn+io2PsXntala/39rQzXygibbBWrF1XsH205MPxhaR0fUP9cq00nKrT
8Mq+tbaM195I54HPAntMwqOVjH5wQYiAo7HSMJnePARO97Qtd/uTWoRIlwd84W/D
D2h85F8FEH8KdZAPVLsiqWYyry1xOpjmnwHP0v4J13/2swIDAQABo4GQMIGNMAkG
A1UdEwQCMAAwHQYDVR0OBBYEFDTFnKH7gUauBvIOIFniKPjsmoW1MB8GA1UdIwQY
MBaAFKnucAgamf7uE8Gl9E1zH07SucIVMEAGA1UdHwQ5MDcwNaAzoDGGL2h0dHA6
Ly93d3cuaW5mLnVmc2MuYnIvfm1hcmxvbi50cmFwcC9jYS1jcmwucGVtMA0GCSqG
SIb3DQEBCwUAA4IEAQCxLwWRgLy0eqRD22FwadTmfOWf8RUGHhXCoqDrnbo5MmYm
jwe91LznTmOEFZw53dQP9boCVfmf/WC7kCBd2eIAFs7H56ld0CK/bHzfgiTlA03D
2S1bTEjbmqzFSnTVSFeXAXawrPwbnb31zwSSi8uwHucGpfw5xMOInBPoz6BUznJo
jJiFLwVm0pQrXXIUa9fD9ikSDpqX4v3MFf9vDzatUUb3UzW9aVSb2dlt52kUzAPn
PFGSvWDJkMjbcEHvhfdHM0gXCG1liV1qNZdWKpNC0CDpZN//jSgTquD2irDIPYYr
m0fdTDIXiuBEXeyox49gCT+qiTzjaaUtTgmhJPykAJ+rokjMeXUPxELCMD8mnxOr
mWyDcnm3jqLY3VLOVE8wNUqZf9x9QuTk0ZqGRZehaQLXDhjxMsoe8TaxpTc7jnBm
ScqiWoxWsXLwVZ4AlhPLbVyEqUSE2ZQ7dBaIOCA3pBE0SueXbODXgRlMbP+FfmV3
86Z6k43ZkN4aDV3B2g8gHhD90uq12R0ttuYzF2xdgpssN+l6CYVWjcLc7u4t2sJQ
Eo63pUv2tSYoOZshwYJa/cXgcrZv4Dyq+V/Z0nIXy7K9P0fqjxpvYcBRjOyHa8HO
rto/C7JrkYJdF199wK82xWmc/RS+URkua9R7q7yjV9qprOxNf+oftDxBPLFo/elL
6cYCmUnFvoO/8LZaOCOFb/A8u+FNJEbIiDWYDFAL74Nv4l1BhB9aO9O/f1mJ6EKR
F1soyO+Oc/l3hGBlkj7ELWi3uais+k9B9hPMwUFJKz6waiFRhUbcrehLjmnMm2P7
F+Wlu2wwyrFKuF+sMnkeP7igVy/EeK9GlWfHHTMxFclx2NPnZKirnT2bx/CPoGJm
YXp4sWEiTf6YyENTqJMXYxoMXT53ZwXqygscOTougtgqFCE/t93Z2nhrJDdSaBRk
an8Pz01yGtn9VyoTYM4bJC+nPqrr/de41kkiE37ahKf868lHQG7LsJgtn4CCRYHS
KvPKqHh69cz2igRFU9qZ77GhFBIk08iHnBTwloxHVBpzVT1Dz3TpMOiaz9WzkYq0
dB24R0NrcJ5k0gOrptBnziS4v5FzIL2Oh/inL7LH3nGEX5/EiG12kgv2fC/s9H40
pErotw6DZjJ1/lkn7qCLbRhHgWEFirZr0wRZBukjYmqad+H3R8f0/aodV1vAG8An
LtXmyLJ5svvj/bMFjQCDnscWroLosegXH03DOaw2PCFKGvm+eEQeCek8PfRXls6X
HZ8RcPhl0YkbTBpTLu3EYcgRDXLbXRhBYH+3kYKJBhMKyGGfV8VQSv4AEV32kyWM
osGe3D9dc7YXiDYNG2j+OlAgTNOen4M2NCg3HmrX
-----END CERTIFICATE-----
