Certificate:
    Data:
        Version: 3 (0x2)
        Serial Number: 2 (0x2)
    Signature Algorithm: sha256WithRSAEncryption
        Issuer: C=BR, ST=Santa Catarina, L=Florianopolis, O=Trapp, OU=Development, CN=Device Server CA
        Validity
            Not Before: Mar  3 19:11:55 2016 GMT
            Not After : Mar  3 19:11:55 2017 GMT
        Subject: C=BR, ST=Santa Catarina, L=Florianopolis, O=Trapp, OU=Development, CN=Revoked
        Subject Public Key Info:
            Public Key Algorithm: rsaEncryption
                Public-Key: (2048 bit)
                Modulus:
                    00:ef:df:1a:60:52:43:f6:8e:ed:10:d2:b8:49:f2:
                    63:73:e3:49:30:c1:45:50:3c:df:10:80:9e:40:71:
                    3d:14:0e:71:a3:49:ce:0c:39:ea:da:bc:d8:4c:f0:
                    6d:2e:75:3e:9f:85:ae:ac:fe:30:62:9b:9d:65:6b:
                    db:55:19:fa:b8:d6:62:29:0d:01:d1:44:c6:65:96:
                    eb:d7:c6:65:19:7c:8a:5f:bc:10:b5:0d:d7:c6:ad:
                    d5:16:78:e5:08:17:a5:50:0f:54:a6:97:cb:78:ca:
                    06:be:58:19:9b:fd:f9:66:b8:af:49:cf:08:46:c8:
                    97:6e:55:76:4c:4b:5d:d3:33:cf:bd:2c:77:23:c2:
                    cd:bc:85:e5:8e:52:c7:ff:48:42:14:c0:34:1c:72:
                    d1:49:2f:21:ce:02:58:7b:3c:67:2d:4c:d2:88:0e:
                    2e:7c:01:b6:e9:cc:dc:49:84:4a:b9:d9:e3:e4:9f:
                    3c:53:a2:ad:13:32:02:38:bb:e2:cf:bc:b6:9a:48:
                    64:22:83:df:66:ec:e9:59:57:f6:32:eb:7e:8a:c7:
                    1e:e5:f0:4a:33:9d:5c:cb:9b:17:6a:2b:1c:52:70:
                    b8:ac:8d:db:14:e8:b0:24:ed:fa:fb:b3:d4:4b:0d:
                    2a:ef:b8:06:ce:38:8a:e4:9b:12:cd:6b:fa:6d:46:
                    ee:fb
                Exponent: 65537 (0x10001)
        X509v3 extensions:
            X509v3 Basic Constraints: 
                CA:FALSE
            X509v3 Subject Key Identifier: 
                DC:F7:FC:E9:0D:71:D7:7F:EF:6E:64:6D:63:5E:00:C1:73:D0:B4:1C
            X509v3 Authority Key Identifier: 
                keyid:A9:EE:70:08:1A:99:FE:EE:13:C1:A5:F4:4D:73:1F:4E:D2:B9:C2:15

            X509v3 CRL Distribution Points: 

                Full Name:
                  URI:http://www.inf.ufsc.br/~marlon.trapp/ca-crl.pem

    Signature Algorithm: sha256WithRSAEncryption
         36:a3:de:83:37:33:be:b0:89:92:7c:c3:14:62:9d:56:ab:04:
         7f:d2:c5:ea:14:47:26:6d:e5:8d:72:e4:82:6d:63:01:9a:2f:
         59:6f:d4:ad:65:dc:f0:76:66:3b:ee:f2:28:91:a9:9d:6f:36:
         36:9a:03:af:78:e3:85:57:26:43:d5:58:ea:04:ee:50:53:08:
         90:b4:68:00:28:e1:2a:2a:5f:07:1a:97:ca:fb:df:72:8e:3c:
         b8:bb:b6:49:4d:d3:46:8f:80:85:d7:e8:5a:46:94:68:dc:01:
         10:c9:8e:fd:ef:cd:b5:9f:55:b9:f5:cc:b5:6d:30:e1:0b:21:
         4a:f5:b0:68:f4:70:05:49:eb:7a:71:c0:58:9c:f5:ce:99:96:
         68:ac:7e:bb:1b:99:59:be:3e:4e:5c:69:8c:8c:e0:d3:0d:3f:
         d2:6e:21:55:e7:6e:00:c7:34:ca:55:f1:a3:ae:e1:df:d3:dd:
         cf:93:bd:c0:96:b0:82:f9:62:06:d4:a7:be:74:3d:6b:29:70:
         27:5c:8d:e9:ec:de:a6:fe:66:89:05:2d:51:1b:94:0f:f9:b5:
         e0:4d:f7:36:62:52:84:8c:eb:64:9e:a8:c4:69:56:ab:71:92:
         d4:be:87:5e:8f:31:ff:ef:1b:c9:da:a4:67:c5:f0:5e:fe:b2:
         49:59:bd:2b:b1:73:34:71:79:c0:9b:77:d1:3a:da:46:eb:bd:
         f3:2e:f6:02:a2:62:f4:3e:eb:2d:01:77:50:47:3f:79:65:21:
         6d:45:d3:2b:c4:05:cd:10:6f:b5:c1:bd:54:0f:fb:fb:9b:05:
         1f:67:89:c3:56:87:79:77:91:6f:bd:88:5b:e0:74:45:e1:6b:
         e8:6c:ea:2e:c9:41:4a:e5:c0:13:e4:73:ba:1d:e3:ff:4d:43:
         1a:1c:cc:72:9e:c3:9f:9a:56:08:c8:c6:37:ba:15:13:0c:d0:
         df:fa:f4:a3:74:39:f6:46:11:4c:21:95:0a:1f:8e:e6:14:0f:
         5c:96:76:5d:c9:4b:20:15:3a:a3:40:3f:a1:4c:11:16:fa:7d:
         06:9d:0d:2f:23:04:1b:bc:e2:b5:b2:b4:d0:98:06:67:30:f5:
         ec:99:4b:1c:83:0a:12:c6:df:c7:7d:d3:cd:53:5f:ff:61:2c:
         fc:4f:f9:90:2e:4f:16:92:64:53:eb:c4:49:fb:b7:24:a7:46:
         29:65:f0:2c:aa:ec:9d:8d:72:78:d3:88:9c:b6:b9:68:d8:2f:
         a6:62:31:f6:1c:cd:f3:04:ab:73:14:12:c9:d9:d0:7f:41:8f:
         ff:38:69:f3:c3:49:0e:81:9b:f5:39:55:81:71:30:17:32:5f:
         74:4c:4d:e6:09:96:33:58:30:34:7b:d6:68:19:5e:33:5e:0d:
         61:ec:cc:06:d9:4a:9f:7e:fe:3b:b3:3b:67:68:85:e1:24:8c:
         56:a4:03:4d:83:d0:26:eb:ab:45:cb:c2:6d:1d:bb:5d:bb:3b:
         16:91:f0:90:57:61:d7:f0:5f:5c:65:ef:eb:e0:f5:d3:be:04:
         75:0e:ca:5d:7c:b8:31:2e:af:3b:67:b1:c8:a2:9a:95:20:30:
         4d:6b:3a:84:c8:82:7e:b9:57:69:21:a8:c6:65:0e:54:91:18:
         bc:51:cb:d7:23:96:24:a4:5b:71:b4:1a:81:26:6e:bd:19:12:
         c3:14:b4:57:3e:43:77:e6:f7:ea:32:25:20:8a:e0:94:d5:2d:
         05:6f:20:ea:a0:e4:a3:37:42:61:39:d5:be:f3:3c:fa:c7:06:
         7e:ee:a9:5b:36:3d:ff:54:58:e1:e0:e2:e6:2c:81:48:e4:3a:
         94:48:bb:35:34:21:f7:42:fa:db:50:e2:48:69:0e:ab:8f:6e:
         20:39:ae:21:10:2f:3d:b0:4f:4e:54:44:bf:5c:e4:7e:4e:a5:
         30:d5:c2:69:b1:eb:3d:49:9c:94:f2:72:01:3f:52:84:f1:68:
         d2:e2:dc:91:ab:fb:eb:81:1f:65:17:46:b6:24:31:a5:f2:c3:
         b0:a3:1d:cb:c8:63:fb:ba:8b:3d:8b:96:48:96:3e:aa:3a:36:
         ed:29:df:05:ad:77:f7:8f:47:73:a8:13:fb:85:7d:d6:0b:89:
         9f:2e:ce:73:23:fd:8f:a8:cf:d9:6d:3c:e7:81:26:b3:87:e3:
         99:c6:3f:0f:2f:a0:a6:de:c2:ae:f7:1a:72:7d:c7:00:4e:6f:
         fb:ff:00:94:38:36:4a:f9:19:e4:9e:91:ea:f8:30:9f:fa:08:
         55:dc:fc:68:c4:cc:f9:e9:78:fd:51:da:68:65:d0:3b:44:ca:
         84:9f:e0:a5:11:e2:ca:1c:e5:c6:70:de:da:aa:24:66:65:29:
         dc:4a:fb:65:e7:ca:7a:aa:ef:5b:08:14:08:aa:26:d9:06:e7:
         8b:59:ef:37:9b:41:98:bb:fc:07:ee:35:bc:2c:23:be:7a:dd:
         7e:15:4e:1d:17:60:b5:b0:2e:be:1c:f6:54:b1:77:9e:48:9d:
         eb:6d:d5:08:0c:1d:eb:4f:33:ee:b5:d9:81:59:14:b1:cc:e5:
         5c:ec:92:b2:e5:f2:c1:5d:5a:a7:fb:57:f3:2e:c7:94:56:ec:
         9f:8d:b9:a8:83:98:c3:21:a5:25:52:b0:33:6a:c8:fa:6f:40:
         0a:8f:f2:60:01:70:7f:65:98:9b:5d:68:44:10:73:bd:f2:7d:
         2b:dc:2d:b6:79:75:dc:cd:eb:c6:42:b4:dd:1b:e6:4f
-----BEGIN CERTIFICATE-----
MIIHATCCAumgAwIBAgIBAjANBgkqhkiG9w0BAQsFADB/MQswCQYDVQQGEwJCUjEX
MBUGA1UECAwOU2FudGEgQ2F0YXJpbmExFjAUBgNVBAcMDUZsb3JpYW5vcG9saXMx
DjAMBgNVBAoMBVRyYXBwMRQwEgYDVQQLDAtEZXZlbG9wbWVudDEZMBcGA1UEAwwQ
RGV2aWNlIFNlcnZlciBDQTAeFw0xNjAzMDMxOTExNTVaFw0xNzAzMDMxOTExNTVa
MHYxCzAJBgNVBAYTAkJSMRcwFQYDVQQIDA5TYW50YSBDYXRhcmluYTEWMBQGA1UE
BwwNRmxvcmlhbm9wb2xpczEOMAwGA1UECgwFVHJhcHAxFDASBgNVBAsMC0RldmVs
b3BtZW50MRAwDgYDVQQDDAdSZXZva2VkMIIBIjANBgkqhkiG9w0BAQEFAAOCAQ8A
MIIBCgKCAQEA798aYFJD9o7tENK4SfJjc+NJMMFFUDzfEICeQHE9FA5xo0nODDnq
2rzYTPBtLnU+n4WurP4wYpudZWvbVRn6uNZiKQ0B0UTGZZbr18ZlGXyKX7wQtQ3X
xq3VFnjlCBelUA9UppfLeMoGvlgZm/35ZrivSc8IRsiXblV2TEtd0zPPvSx3I8LN
vIXljlLH/0hCFMA0HHLRSS8hzgJYezxnLUzSiA4ufAG26czcSYRKudnj5J88U6Kt
EzICOLviz7y2mkhkIoPfZuzpWVf2Mut+isce5fBKM51cy5sXaiscUnC4rI3bFOiw
JO36+7PUSw0q77gGzjiK5JsSzWv6bUbu+wIDAQABo4GQMIGNMAkGA1UdEwQCMAAw
HQYDVR0OBBYEFNz3/OkNcdd/725kbWNeAMFz0LQcMB8GA1UdIwQYMBaAFKnucAga
mf7uE8Gl9E1zH07SucIVMEAGA1UdHwQ5MDcwNaAzoDGGL2h0dHA6Ly93d3cuaW5m
LnVmc2MuYnIvfm1hcmxvbi50cmFwcC9jYS1jcmwucGVtMA0GCSqGSIb3DQEBCwUA
A4IEAQA2o96DNzO+sImSfMMUYp1WqwR/0sXqFEcmbeWNcuSCbWMBmi9Zb9StZdzw
dmY77vIokamdbzY2mgOveOOFVyZD1VjqBO5QUwiQtGgAKOEqKl8HGpfK+99yjjy4
u7ZJTdNGj4CF1+haRpRo3AEQyY797821n1W59cy1bTDhCyFK9bBo9HAFSet6ccBY
nPXOmZZorH67G5lZvj5OXGmMjODTDT/SbiFV524AxzTKVfGjruHf093Pk73AlrCC
+WIG1Ke+dD1rKXAnXI3p7N6m/maJBS1RG5QP+bXgTfc2YlKEjOtknqjEaVarcZLU
vodejzH/7xvJ2qRnxfBe/rJJWb0rsXM0cXnAm3fROtpG673zLvYComL0PustAXdQ
Rz95ZSFtRdMrxAXNEG+1wb1UD/v7mwUfZ4nDVod5d5FvvYhb4HRF4WvobOouyUFK
5cAT5HO6HeP/TUMaHMxynsOfmlYIyMY3uhUTDNDf+vSjdDn2RhFMIZUKH47mFA9c
lnZdyUsgFTqjQD+hTBEW+n0GnQ0vIwQbvOK1srTQmAZnMPXsmUscgwoSxt/HfdPN
U1//YSz8T/mQLk8WkmRT68RJ+7ckp0YpZfAsquydjXJ404ictrlo2C+mYjH2HM3z
BKtzFBLJ2dB/QY//OGnzw0kOgZv1OVWBcTAXMl90TE3mCZYzWDA0e9ZoGV4zXg1h
7MwG2Uqffv47sztnaIXhJIxWpANNg9Am66tFy8JtHbtduzsWkfCQV2HX8F9cZe/r
4PXTvgR1DspdfLgxLq87Z7HIopqVIDBNazqEyIJ+uVdpIajGZQ5UkRi8UcvXI5Yk
pFtxtBqBJm69GRLDFLRXPkN35vfqMiUgiuCU1S0FbyDqoOSjN0JhOdW+8zz6xwZ+
7qlbNj3/VFjh4OLmLIFI5DqUSLs1NCH3QvrbUOJIaQ6rj24gOa4hEC89sE9OVES/
XOR+TqUw1cJpses9SZyU8nIBP1KE8WjS4tyRq/vrgR9lF0a2JDGl8sOwox3LyGP7
uos9i5ZIlj6qOjbtKd8FrXf3j0dzqBP7hX3WC4mfLs5zI/2PqM/ZbTzngSazh+OZ
xj8PL6Cm3sKu9xpyfccATm/7/wCUODZK+RnknpHq+DCf+ghV3PxoxMz56Xj9Udpo
ZdA7RMqEn+ClEeLKHOXGcN7aqiRmZSncSvtl58p6qu9bCBQIqibZBueLWe83m0GY
u/wH7jW8LCO+et1+FU4dF2C1sC6+HPZUsXeeSJ3rbdUIDB3rTzPutdmBWRSxzOVc
7JKy5fLBXVqn+1fzLseUVuyfjbmog5jDIaUlUrAzasj6b0AKj/JgAXB/ZZibXWhE
EHO98n0r3C22eXXczevGQrTdG+ZP
-----END CERTIFICATE-----
