Certificate:
    Data:
        Version: 3 (0x2)
        Serial Number: 2 (0x2)
    Signature Algorithm: sha256WithRSAEncryption
        Issuer: C=BR, ST=Santa Catarina, L=Florianopolis, O=Trapp, OU=Device Server, CN=Device Server CA
        Validity
            Not Before: Feb 12 12:21:30 2016 GMT
            Not After : Feb  9 12:21:30 2026 GMT
        Subject: C=BR, ST=Santa Catarina, L=Florianopolis, O=Other Company, OU=Unit, CN=JS App
        Subject Public Key Info:
            Public Key Algorithm: rsaEncryption
                Public-Key: (2048 bit)
                Modulus:
                    00:a8:ad:27:8f:8a:80:a4:ef:07:e5:1f:00:c8:d3:
                    2b:da:8b:71:df:72:8e:b0:12:2c:00:8b:ac:48:b8:
                    03:13:52:1b:e9:4d:44:d6:99:6e:81:7e:c9:97:e0:
                    4d:2e:f8:74:88:a3:14:10:34:56:b8:d4:69:79:06:
                    b1:33:1a:31:d2:d5:84:2a:6b:88:cd:99:48:32:cc:
                    52:98:5a:bb:7d:c2:a2:c8:dd:88:c5:2c:d4:e8:05:
                    ce:c5:b9:f2:ed:6e:8d:1b:f4:f6:8a:70:2a:d2:d8:
                    c4:e9:0a:5a:11:6e:f8:4d:a3:ce:4e:5a:85:b7:2c:
                    6c:60:7e:9a:0f:86:f6:e5:24:f6:7e:32:89:3d:b9:
                    00:c4:9a:e4:dc:0a:95:b4:2a:77:f2:d0:3c:57:ac:
                    38:72:a5:18:fd:fa:87:01:27:75:40:97:9c:41:72:
                    1b:a4:ae:c2:cc:de:65:34:4f:7f:50:a8:70:2d:73:
                    a4:ff:99:ec:6f:28:08:e1:fb:59:6b:52:4a:b1:11:
                    e6:54:e5:56:3a:a4:e1:23:78:78:0a:e2:c4:17:6b:
                    d2:8e:55:b0:1c:1a:c3:5b:d9:76:70:93:00:a3:dc:
                    eb:c7:2a:87:3f:21:b9:c5:7f:98:84:b1:d5:c2:d1:
                    96:ae:0c:38:7e:31:f6:82:72:5e:9a:24:2b:24:1d:
                    83:17
                Exponent: 65537 (0x10001)
        X509v3 extensions:
            X509v3 Basic Constraints: 
                CA:FALSE
            Netscape Comment: 
                OpenSSL Generated Certificate
            X509v3 Subject Key Identifier: 
                7B:E1:D1:55:C1:29:23:7C:59:8C:C9:5B:35:6A:51:E4:97:4F:F6:F4
            X509v3 Authority Key Identifier: 
                keyid:EC:34:23:B3:F9:A6:3D:9A:68:F2:D4:DC:51:94:4A:16:3F:57:60:C7

    Signature Algorithm: sha256WithRSAEncryption
         93:81:87:90:c1:5c:0e:ea:79:22:29:e5:18:94:93:b5:86:bb:
         27:89:26:cb:a8:e5:ce:e7:7b:9f:4f:39:9a:fc:99:56:3c:86:
         91:0b:76:2e:59:94:df:6f:b1:7e:a0:b5:ac:9f:42:5f:0d:7f:
         ee:fe:61:95:b0:4b:bb:38:ec:03:1f:13:ac:bf:72:6b:92:14:
         7d:93:ee:31:88:43:5a:bd:49:28:7f:e3:ac:72:23:70:1f:d9:
         3b:60:07:24:9c:ab:b2:de:be:4c:73:06:da:f0:a6:b6:fa:09:
         15:a8:1f:ca:08:ae:a9:b6:23:ab:e3:51:3f:3d:dc:b8:c2:ec:
         88:39:fc:09:31:52:a7:af:67:b5:de:49:fb:5d:81:0d:b7:41:
         55:41:9b:b1:a3:d8:00:d1:ae:1d:bf:d4:8e:f1:e2:72:09:df:
         e8:83:ae:ba:46:42:15:3a:19:d7:0d:d8:92:5c:36:b0:a9:7e:
         03:af:18:2e:4a:d1:c3:5b:e1:40:9f:80:c2:6e:5e:1a:07:88:
         f6:81:c1:9c:dc:d4:d2:75:e6:a6:11:ca:c0:36:00:15:2f:a4:
         fd:eb:9c:9f:84:3c:72:9c:66:47:eb:62:a7:1b:23:a3:43:d6:
         aa:23:42:9c:55:7b:02:82:f8:9e:46:4d:9a:4e:6d:b5:26:d3:
         f0:8e:9b:04:f6:d0:92:f4:97:cf:81:17:c4:e1:46:f3:09:6b:
         88:52:29:0d:18:2d:ef:74:73:5e:46:3d:ce:36:4d:2d:99:e9:
         58:6c:18:4d:76:6c:de:b4:bf:67:7d:49:50:ee:85:5a:00:5a:
         bf:45:70:51:48:6f:fc:fd:bb:6f:a3:5e:5d:c8:42:ab:2a:56:
         1f:a0:8d:d0:8a:8f:64:38:d2:a1:15:71:a7:fd:50:99:fd:84:
         c9:6b:96:cb:49:bb:28:60:da:cc:21:ac:45:ea:13:e7:06:b4:
         a6:c6:1b:a0:2c:ac:25:dd:6b:1e:2a:53:66:c7:8c:7e:eb:81:
         c5:07:44:c7:1d:ea:78:56:6a:2b:0c:d7:4c:e3:35:43:96:a0:
         58:9d:14:84:7b:8a:db:92:64:c8:8c:0c:dc:39:77:0f:b9:9b:
         14:3f:1c:24:7f:ce:a9:da:ce:43:77:3e:77:4d:84:63:0b:63:
         1e:57:f2:a6:cf:4d:0b:b1:a8:db:2b:35:2e:5a:8a:94:74:c6:
         76:b6:4e:01:30:35:db:ba:2c:e1:e3:91:bc:94:47:b4:b7:07:
         51:d3:fe:ed:33:10:20:2a:37:bb:83:12:d7:71:ee:b3:c7:f2:
         0f:be:6b:d5:f4:d8:b2:20:4d:d6:ae:a0:39:e0:3e:4b:15:fb:
         3e:a9:0e:3f:a9:89:47:f3:c3:34:20:02:3e:92:db:0b:56:d0:
         1f:55:3a:d8:46:9d:fa:8a:e4:3f:39:e5:f4:85:85:a9:2c:3c:
         d0:f8:43:e7:46:88:ec:a1:14:23:7e:52:c6:b6:26:22:82:26:
         e0:fd:0a:a3:57:93:d9:75:e8:e9:49:11:a6:c6:b7:2b:01:96:
         f9:80:82:00:c4:65:7c:cc:e3:e4:63:c4:fa:37:5b:23:c0:48:
         8c:88:2d:5c:3e:bd:bd:20:cc:e6:e5:4a:41:68:0d:23:0a:17:
         28:f0:43:78:81:30:7b:89:68:c2:9f:58:1c:b1:5c:f4:96:a8:
         e9:4a:d6:a7:c8:f9:2b:3a:e3:b6:3f:de:2a:84:b9:5e:72:c2:
         8c:4d:f8:75:ba:d7:38:00:63:0b:69:b3:a3:d2:36:f2:91:3a:
         11:4d:19:3e:fd:f0:b4:2a:3c:68:b4:32:b2:b1:94:20:0f:21:
         80:17:34:b4:93:99:b6:70:2d:1a:96:b3:cf:1e:ba:1b:23:46:
         99:e1:b5:aa:90:28:18:8f:8e:0c:6a:44:1f:5d:43:9c:06:26:
         05:9d:25:e7:55:c7:56:a8:27:ea:c2:59:8a:7f:17:12:19:c7:
         b2:0e:19:2c:08:32:ef:60:18:8d:a8:a1:bf:07:7c:ff:3d:60:
         d9:28:7c:1e:62:fd:3b:6e:70:77:b4:a1:07:cd:e4:da:cb:7a:
         86:29:b6:9a:fb:a7:2d:c4:de:47:69:1b:39:58:6e:08:92:bd:
         81:b0:07:85:ae:07:b3:50:57:91:65:75:d7:e1:40:4a:21:7b:
         77:21:0c:8f:fc:7a:a2:c9:8f:d1:9b:bc:0c:0a:1a:2b:2b:1a:
         e8:55:dd:e2:32:b0:78:b1:2d:34:49:52:29:ce:54:d5:1e:63:
         5e:9d:93:ac:b6:88:6e:3d:b3:8e:3d:27:84:c6:9d:f2:b5:8c:
         a6:81:ce:d1:37:40:e5:95:b0:9c:5c:84:17:6a:21:36:17:33:
         59:57:81:09:f5:e1:05:96:1b:b5:c6:03:98:a7:2c:15:3d:2d:
         4c:e4:70:a4:eb:1f:aa:27:8a:14:ab:96:2b:06:32:cf:60:ce:
         41:44:a4:f6:96:47:1a:6d:87:20:36:7f:b3:03:93:96:1d:05:
         df:d8:78:5b:60:36:43:0a:cf:4b:46:64:3a:cd:d8:3b:6c:06:
         40:c8:8f:01:7d:99:e8:ce:6f:8d:c1:7f:da:eb:43:03:73:87:
         33:a8:2c:3f:11:90:18:84:19:31:ea:aa:cf:63:3a:f2:ed:05:
         93:d4:56:94:d4:e2:e5:da:11:e0:70:78:ae:f7:a8:5a:60:cc:
         08:6c:83:12:6b:01:e6:36:57:75:04:cc:fb:c9:23:4f
-----BEGIN CERTIFICATE-----
MIIG7jCCAtagAwIBAgIBAjANBgkqhkiG9w0BAQsFADCBgTELMAkGA1UEBhMCQlIx
FzAVBgNVBAgMDlNhbnRhIENhdGFyaW5hMRYwFAYDVQQHDA1GbG9yaWFub3BvbGlz
MQ4wDAYDVQQKDAVUcmFwcDEWMBQGA1UECwwNRGV2aWNlIFNlcnZlcjEZMBcGA1UE
AwwQRGV2aWNlIFNlcnZlciBDQTAeFw0xNjAyMTIxMjIxMzBaFw0yNjAyMDkxMjIx
MzBaMHYxCzAJBgNVBAYTAkJSMRcwFQYDVQQIDA5TYW50YSBDYXRhcmluYTEWMBQG
A1UEBwwNRmxvcmlhbm9wb2xpczEWMBQGA1UECgwNT3RoZXIgQ29tcGFueTENMAsG
A1UECwwEVW5pdDEPMA0GA1UEAwwGSlMgQXBwMIIBIjANBgkqhkiG9w0BAQEFAAOC
AQ8AMIIBCgKCAQEAqK0nj4qApO8H5R8AyNMr2otx33KOsBIsAIusSLgDE1Ib6U1E
1plugX7Jl+BNLvh0iKMUEDRWuNRpeQaxMxox0tWEKmuIzZlIMsxSmFq7fcKiyN2I
xSzU6AXOxbny7W6NG/T2inAq0tjE6QpaEW74TaPOTlqFtyxsYH6aD4b25ST2fjKJ
PbkAxJrk3AqVtCp38tA8V6w4cqUY/fqHASd1QJecQXIbpK7CzN5lNE9/UKhwLXOk
/5nsbygI4ftZa1JKsRHmVOVWOqThI3h4CuLEF2vSjlWwHBrDW9l2cJMAo9zrxyqH
PyG5xX+YhLHVwtGWrgw4fjH2gnJemiQrJB2DFwIDAQABo3sweTAJBgNVHRMEAjAA
MCwGCWCGSAGG+EIBDQQfFh1PcGVuU1NMIEdlbmVyYXRlZCBDZXJ0aWZpY2F0ZTAd
BgNVHQ4EFgQUe+HRVcEpI3xZjMlbNWpR5JdP9vQwHwYDVR0jBBgwFoAU7DQjs/mm
PZpo8tTcUZRKFj9XYMcwDQYJKoZIhvcNAQELBQADggQBAJOBh5DBXA7qeSIp5RiU
k7WGuyeJJsuo5c7ne59POZr8mVY8hpELdi5ZlN9vsX6gtayfQl8Nf+7+YZWwS7s4
7AMfE6y/cmuSFH2T7jGIQ1q9SSh/46xyI3Af2TtgByScq7LevkxzBtrwprb6CRWo
H8oIrqm2I6vjUT893LjC7Ig5/AkxUqevZ7XeSftdgQ23QVVBm7Gj2ADRrh2/1I7x
4nIJ3+iDrrpGQhU6GdcN2JJcNrCpfgOvGC5K0cNb4UCfgMJuXhoHiPaBwZzc1NJ1
5qYRysA2ABUvpP3rnJ+EPHKcZkfrYqcbI6ND1qojQpxVewKC+J5GTZpObbUm0/CO
mwT20JL0l8+BF8ThRvMJa4hSKQ0YLe90c15GPc42TS2Z6VhsGE12bN60v2d9SVDu
hVoAWr9FcFFIb/z9u2+jXl3IQqsqVh+gjdCKj2Q40qEVcaf9UJn9hMlrlstJuyhg
2swhrEXqE+cGtKbGG6AsrCXdax4qU2bHjH7rgcUHRMcd6nhWaisM10zjNUOWoFid
FIR7ituSZMiMDNw5dw+5mxQ/HCR/zqnazkN3PndNhGMLYx5X8qbPTQuxqNsrNS5a
ipR0xna2TgEwNdu6LOHjkbyUR7S3B1HT/u0zECAqN7uDEtdx7rPH8g++a9X02LIg
TdauoDngPksV+z6pDj+piUfzwzQgAj6S2wtW0B9VOthGnfqK5D855fSFhaksPND4
Q+dGiOyhFCN+Usa2JiKCJuD9CqNXk9l16OlJEabGtysBlvmAggDEZXzM4+RjxPo3
WyPASIyILVw+vb0gzOblSkFoDSMKFyjwQ3iBMHuJaMKfWByxXPSWqOlK1qfI+Ss6
47Y/3iqEuV5ywoxN+HW61zgAYwtps6PSNvKROhFNGT798LQqPGi0MrKxlCAPIYAX
NLSTmbZwLRqWs88euhsjRpnhtaqQKBiPjgxqRB9dQ5wGJgWdJedVx1aoJ+rCWYp/
FxIZx7IOGSwIMu9gGI2oob8HfP89YNkofB5i/TtucHe0oQfN5NrLeoYptpr7py3E
3kdpGzlYbgiSvYGwB4WuB7NQV5FlddfhQEohe3chDI/8eqLJj9GbvAwKGisrGuhV
3eIysHixLTRJUinOVNUeY16dk6y2iG49s449J4TGnfK1jKaBztE3QOWVsJxchBdq
ITYXM1lXgQn14QWWG7XGA5inLBU9LUzkcKTrH6onihSrlisGMs9gzkFEpPaWRxpt
hyA2f7MDk5YdBd/YeFtgNkMKz0tGZDrN2DtsBkDIjwF9mejOb43Bf9rrQwNzhzOo
LD8RkBiEGTHqqs9jOvLtBZPUVpTU4uXaEeBweK73qFpgzAhsgxJrAeY2V3UEzPvJ
I08=
-----END CERTIFICATE-----
